target datalayout = "e-m:e-p270:32:32-p271:32:32-p272:64:64-i64:64-i128:128-f80:128-n8:16:32:64-S128"
target triple = "x86_64-pc-linux-gnu"

; Function Attrs: mustprogress nounwind uwtable
define noundef i64 @_ZN6casadi16SparsityInternal4leafExxPKxPxS3_S3_S3_(i64 noundef %0, i64 noundef %1, ptr noundef %2, ptr noundef %3, ptr noundef %4, ptr noundef %5, ptr noundef %6) #4 align 2 {
  %8 = alloca i64, align 8
  %9 = alloca i64, align 8
  %10 = alloca i64, align 8
  %11 = alloca ptr, align 8
  %12 = alloca ptr, align 8
  %13 = alloca ptr, align 8
  %14 = alloca ptr, align 8
  %15 = alloca ptr, align 8
  %16 = alloca i64, align 8
  %17 = alloca i64, align 8
  %18 = alloca i64, align 8
  %19 = alloca i64, align 8
  store i64 %0, ptr %9, align 8
  store i64 %1, ptr %10, align 8
  store ptr %2, ptr %11, align 8
  store ptr %3, ptr %12, align 8
  store ptr %4, ptr %13, align 8
  store ptr %5, ptr %14, align 8
  store ptr %6, ptr %15, align 8
  %20 = load ptr, ptr %15, align 8
  store i64 0, ptr %20, align 8
  %21 = load i64, ptr %9, align 8
  %22 = load i64, ptr %10, align 8
  %23 = icmp sle i64 %21, %22
  br i1 %23, label %34, label %24

24:                                               ; preds = %7
  %25 = load ptr, ptr %11, align 8
  %26 = load i64, ptr %10, align 8
  %27 = getelementptr inbounds i64, ptr %25, i64 %26
  %28 = load i64, ptr %27, align 8
  %29 = load ptr, ptr %12, align 8
  %30 = load i64, ptr %9, align 8
  %31 = getelementptr inbounds i64, ptr %29, i64 %30
  %32 = load i64, ptr %31, align 8
  %33 = icmp sle i64 %28, %32
  br i1 %33, label %34, label %35

34:                                               ; preds = %24, %7
  store i64 -1, ptr %8, align 8
  br label %95

35:                                               ; preds = %24
  %36 = load ptr, ptr %11, align 8
  %37 = load i64, ptr %10, align 8
  %38 = getelementptr inbounds i64, ptr %36, i64 %37
  %39 = load i64, ptr %38, align 8
  %40 = load ptr, ptr %12, align 8
  %41 = load i64, ptr %9, align 8
  %42 = getelementptr inbounds i64, ptr %40, i64 %41
  store i64 %39, ptr %42, align 8
  %43 = load ptr, ptr %13, align 8
  %44 = load i64, ptr %9, align 8
  %45 = getelementptr inbounds i64, ptr %43, i64 %44
  %46 = load i64, ptr %45, align 8
  store i64 %46, ptr %19, align 8
  %47 = load i64, ptr %10, align 8
  %48 = load ptr, ptr %13, align 8
  %49 = load i64, ptr %9, align 8
  %50 = getelementptr inbounds i64, ptr %48, i64 %49
  store i64 %47, ptr %50, align 8
  %51 = load i64, ptr %19, align 8
  %52 = icmp eq i64 %51, -1
  %53 = select i1 %52, i32 1, i32 2
  %54 = sext i32 %53 to i64
  %55 = load ptr, ptr %15, align 8
  store i64 %54, ptr %55, align 8
  %56 = load ptr, ptr %15, align 8
  %57 = load i64, ptr %56, align 8
  %58 = icmp eq i64 %57, 1
  br i1 %58, label %59, label %61

59:                                               ; preds = %35
  %60 = load i64, ptr %9, align 8
  store i64 %60, ptr %8, align 8
  br label %95

61:                                               ; preds = %35
  %62 = load i64, ptr %19, align 8
  store i64 %62, ptr %16, align 8
  br label %63

63:                                               ; preds = %71, %61
  %64 = load i64, ptr %16, align 8
  %65 = load ptr, ptr %14, align 8
  %66 = load i64, ptr %16, align 8
  %67 = getelementptr inbounds i64, ptr %65, i64 %66
  %68 = load i64, ptr %67, align 8
  %69 = icmp ne i64 %64, %68
  br i1 %69, label %70, label %76

70:                                               ; preds = %63
  br label %71

71:                                               ; preds = %70
  %72 = load ptr, ptr %14, align 8
  %73 = load i64, ptr %16, align 8
  %74 = getelementptr inbounds i64, ptr %72, i64 %73
  %75 = load i64, ptr %74, align 8
  store i64 %75, ptr %16, align 8
  br label %63, !llvm.loop !13

76:                                               ; preds = %63
  %77 = load i64, ptr %19, align 8
  store i64 %77, ptr %17, align 8
  br label %78

78:                                               ; preds = %91, %76
  %79 = load i64, ptr %17, align 8
  %80 = load i64, ptr %16, align 8
  %81 = icmp ne i64 %79, %80
  br i1 %81, label %82, label %93

82:                                               ; preds = %78
  %83 = load ptr, ptr %14, align 8
  %84 = load i64, ptr %17, align 8
  %85 = getelementptr inbounds i64, ptr %83, i64 %84
  %86 = load i64, ptr %85, align 8
  store i64 %86, ptr %18, align 8
  %87 = load i64, ptr %16, align 8
  %88 = load ptr, ptr %14, align 8
  %89 = load i64, ptr %17, align 8
  %90 = getelementptr inbounds i64, ptr %88, i64 %89
  store i64 %87, ptr %90, align 8
  br label %91

91:                                               ; preds = %82
  %92 = load i64, ptr %18, align 8
  store i64 %92, ptr %17, align 8
  br label %78, !llvm.loop !14

93:                                               ; preds = %78
  %94 = load i64, ptr %16, align 8
  store i64 %94, ptr %8, align 8
  br label %95

95:                                               ; preds = %93, %59, %34
  %96 = load i64, ptr %8, align 8
  ret i64 %96
}