; Function Attrs: mustprogress nofree norecurse nosync nounwind memory(argmem: readwrite) uwtable
define noundef i64 @_ZN6casadi16SparsityInternal4leafExxPKxPxS3_S3_S3_(i64 noundef %0, i64 noundef %1, ptr nocapture noundef readonly %2, ptr nocapture noundef %3, ptr nocapture noundef %4, ptr nocapture noundef %5, ptr nocapture noundef writeonly %6) local_unnamed_addr #3 align 2 {
  store i64 0, ptr %6, align 8
  %.not = icmp sgt i64 %0, %1
  br i1 %.not, label %8, label %.loopexit

8:                                                ; preds = %7
  %9 = getelementptr inbounds i64, ptr %2, i64 %1
  %10 = load i64, ptr %9, align 8
  %11 = getelementptr inbounds i64, ptr %3, i64 %0
  %12 = load i64, ptr %11, align 8
  %.not43 = icmp sgt i64 %10, %12
  br i1 %.not43, label %13, label %.loopexit

13:                                               ; preds = %8
  store i64 %10, ptr %11, align 8
  %14 = getelementptr inbounds i64, ptr %4, i64 %0
  %15 = load i64, ptr %14, align 8
  store i64 %1, ptr %14, align 8
  %16 = icmp eq i64 %15, -1
  %17 = select i1 %16, i64 1, i64 2
  store i64 %17, ptr %6, align 8
  br i1 %16, label %.loopexit, label %.preheader46

.preheader46:                                     ; preds = %13, %.preheader46
  %.036 = phi i64 [ %19, %.preheader46 ], [ %15, %13 ]
  %18 = getelementptr inbounds i64, ptr %5, i64 %.036
  %19 = load i64, ptr %18, align 8
  %.not44 = icmp eq i64 %.036, %19
  br i1 %.not44, label %.preheader, label %.preheader46, !llvm.loop !11

.preheader:                                       ; preds = %.preheader46
  %.not4547 = icmp eq i64 %15, %.036
  br i1 %.not4547, label %.loopexit, label %.lr.ph

.lr.ph:                                           ; preds = %.preheader, %.lr.ph
  %.03748 = phi i64 [ %21, %.lr.ph ], [ %15, %.preheader ]
  %20 = getelementptr inbounds i64, ptr %5, i64 %.03748
  %21 = load i64, ptr %20, align 8
  store i64 %.036, ptr %20, align 8
  %.not45 = icmp eq i64 %21, %.036
  br i1 %.not45, label %.loopexit, label %.lr.ph, !llvm.loop !12

.loopexit:                                        ; preds = %.lr.ph, %.preheader, %13, %7, %8
  %.0 = phi i64 [ -1, %8 ], [ -1, %7 ], [ %0, %13 ], [ %15, %.preheader ], [ %.036, %.lr.ph ]
  ret i64 %.0
}